target datalayout = "e-m:e-p270:32:32-p271:32:32-p272:64:64-i64:64-i128:128-f80:128-n8:16:32:64-S128"
target triple = "x86_64-unknown-linux-gnu"

%struct.ConnectionKey = type <{ %struct.in_addr, %struct.in_addr, i16, i16, i8 }>
%struct.in_addr = type { i32 }
%struct.Connection = type { %struct._GQueue, %struct._GQueue, i8, i8, i32, i32, i32, i32, i32, i32 }
%struct._GQueue = type { ptr, ptr, i32 }
%struct.timeval = type { i64, i64 }

@.str.5 = private unnamed_addr constant [47 x i8] c"colo proxy connection hashtable full, clear it\00", align 1
@trace_events_enabled_count = external global i32, align 4
@message_with_timestamp = external global i8, align 1
@qemu_loglevel = external global i32, align 4
@_TRACE_COLO_PROXY_MAIN_DSTATE = external global i16, align 2
@.str.8 = private unnamed_addr constant [35 x i8] c"%d@%zu.%06zu:colo_proxy_main : %s\0A\00", align 1
@.str.9 = private unnamed_addr constant [22 x i8] c"colo_proxy_main : %s\0A\00", align 1

; Function Attrs: nounwind sspstrong uwtable
define internal zeroext i1 @qemu_loglevel_mask(i32 noundef %mask) #0 {
entry:
  %mask.addr = alloca i32, align 4
  store i32 %mask, ptr %mask.addr, align 4
  %0 = load i32, ptr @qemu_loglevel, align 4
  %1 = load i32, ptr %mask.addr, align 4
  %and = and i32 %0, %1
  %cmp = icmp ne i32 %and, 0
  ret i1 %cmp
}

; Function Attrs: nounwind sspstrong uwtable
define internal void @_nocheck__trace_colo_proxy_main(ptr noundef %chr) #0 {
entry:
  %chr.addr = alloca ptr, align 8
  %_now = alloca %struct.timeval, align 8
  store ptr %chr, ptr %chr.addr, align 8
  %0 = load i32, ptr @trace_events_enabled_count, align 4
  %tobool = icmp ne i32 %0, 0
  %lnot = xor i1 %tobool, true
  %lnot1 = xor i1 %lnot, true
  %lnot.ext = zext i1 %lnot1 to i32
  %conv = sext i32 %lnot.ext to i64
  %tobool2 = icmp ne i64 %conv, 0
  br i1 %tobool2, label %land.lhs.true, label %if.end11

land.lhs.true:                                    ; preds = %entry
  %1 = load i16, ptr @_TRACE_COLO_PROXY_MAIN_DSTATE, align 2
  %conv3 = zext i16 %1 to i32
  %tobool4 = icmp ne i32 %conv3, 0
  br i1 %tobool4, label %land.lhs.true5, label %if.end11

land.lhs.true5:                                   ; preds = %land.lhs.true
  %call = call zeroext i1 @qemu_loglevel_mask(i32 noundef 32768)
  br i1 %call, label %if.then, label %if.end11

if.then:                                          ; preds = %land.lhs.true5
  %2 = load i8, ptr @message_with_timestamp, align 1
  %tobool7 = trunc i8 %2 to i1
  br i1 %tobool7, label %if.then8, label %if.else

if.then8:                                         ; preds = %if.then
  %call9 = call i32 @gettimeofday(ptr noundef %_now, ptr noundef null) #15
  %call10 = call i32 @qemu_get_thread_id()
  %tv_sec = getelementptr inbounds %struct.timeval, ptr %_now, i32 0, i32 0
  %3 = load i64, ptr %tv_sec, align 8
  %tv_usec = getelementptr inbounds %struct.timeval, ptr %_now, i32 0, i32 1
  %4 = load i64, ptr %tv_usec, align 8
  %5 = load ptr, ptr %chr.addr, align 8
  call void (ptr, ...) @qemu_log(ptr noundef @.str.8, i32 noundef %call10, i64 noundef %3, i64 noundef %4, ptr noundef %5)
  br label %if.end

if.else:                                          ; preds = %if.then
  %6 = load ptr, ptr %chr.addr, align 8
  call void (ptr, ...) @qemu_log(ptr noundef @.str.9, ptr noundef %6)
  br label %if.end

if.end:                                           ; preds = %if.else, %if.then8
  br label %if.end11

if.end11:                                         ; preds = %if.end, %land.lhs.true5, %land.lhs.true, %entry
  ret void
}

; Function Attrs: nounwind sspstrong uwtable
define dso_local void @connection_destroy(ptr noundef %opaque) #0 {
entry:
  %opaque.addr = alloca ptr, align 8
  %conn = alloca ptr, align 8
  store ptr %opaque, ptr %opaque.addr, align 8
  %0 = load ptr, ptr %opaque.addr, align 8
  store ptr %0, ptr %conn, align 8
  %1 = load ptr, ptr %conn, align 8
  %primary_list = getelementptr inbounds %struct.Connection, ptr %1, i32 0, i32 0
  call void @g_queue_foreach(ptr noundef %primary_list, ptr noundef @packet_destroy, ptr noundef null)
  %2 = load ptr, ptr %conn, align 8
  %primary_list1 = getelementptr inbounds %struct.Connection, ptr %2, i32 0, i32 0
  call void @g_queue_clear(ptr noundef %primary_list1)
  %3 = load ptr, ptr %conn, align 8
  %secondary_list = getelementptr inbounds %struct.Connection, ptr %3, i32 0, i32 1
  call void @g_queue_foreach(ptr noundef %secondary_list, ptr noundef @packet_destroy, ptr noundef null)
  %4 = load ptr, ptr %conn, align 8
  %secondary_list2 = getelementptr inbounds %struct.Connection, ptr %4, i32 0, i32 1
  call void @g_queue_clear(ptr noundef %secondary_list2)
  br label %do.body

do.body:                                          ; preds = %entry
  %5 = load ptr, ptr %conn, align 8
  call void @g_slice_free1(i64 noundef 80, ptr noundef %5)
  br label %do.end

do.end:                                           ; preds = %do.body
  ret void
}

; Function Attrs: nounwind sspstrong uwtable
define dso_local void @connection_hashtable_reset(ptr noundef %connection_track_table) #0 {
entry:
  %connection_track_table.addr = alloca ptr, align 8
  store ptr %connection_track_table, ptr %connection_track_table.addr, align 8
  %0 = load ptr, ptr %connection_track_table.addr, align 8
  call void @g_hash_table_remove_all(ptr noundef %0)
  ret void
}

; Function Attrs: nounwind sspstrong uwtable
define internal void @trace_colo_proxy_main(ptr noundef %chr) #0 {
entry:
  %chr.addr = alloca ptr, align 8
  store ptr %chr, ptr %chr.addr, align 8
  %0 = load ptr, ptr %chr.addr, align 8
  call void @_nocheck__trace_colo_proxy_main(ptr noundef %0)
  ret void
}

; Function Attrs: nounwind sspstrong uwtable
define dso_local ptr @connection_new(ptr noundef %key) #0 {
entry:
  %key.addr = alloca ptr, align 8
  %conn = alloca ptr, align 8
  store ptr %key, ptr %key.addr, align 8
  %call = call noalias ptr @g_slice_alloc0(i64 noundef 80) #13
  store ptr %call, ptr %conn, align 8
  %0 = load ptr, ptr %key.addr, align 8
  %ip_proto = getelementptr inbounds %struct.ConnectionKey, ptr %0, i32 0, i32 4
  %1 = load i8, ptr %ip_proto, align 1
  %2 = load ptr, ptr %conn, align 8
  %ip_proto1 = getelementptr inbounds %struct.Connection, ptr %2, i32 0, i32 3
  store i8 %1, ptr %ip_proto1, align 1
  %3 = load ptr, ptr %conn, align 8
  %processing = getelementptr inbounds %struct.Connection, ptr %3, i32 0, i32 2
  store i8 0, ptr %processing, align 8
  %4 = load ptr, ptr %conn, align 8
  %tcp_state = getelementptr inbounds %struct.Connection, ptr %4, i32 0, i32 8
  store i32 0, ptr %tcp_state, align 4
  %5 = load ptr, ptr %conn, align 8
  %primary_list = getelementptr inbounds %struct.Connection, ptr %5, i32 0, i32 0
  call void @g_queue_init(ptr noundef %primary_list)
  %6 = load ptr, ptr %conn, align 8
  %secondary_list = getelementptr inbounds %struct.Connection, ptr %6, i32 0, i32 1
  call void @g_queue_init(ptr noundef %secondary_list)
  %7 = load ptr, ptr %conn, align 8
  ret ptr %7
}

; Function Attrs: nounwind sspstrong uwtable
define dso_local ptr @connection_get(ptr noundef %connection_track_table, ptr noundef %key, ptr noundef %conn_list) #0 {
entry:
  %connection_track_table.addr = alloca ptr, align 8
  %key.addr = alloca ptr, align 8
  %conn_list.addr = alloca ptr, align 8
  %conn = alloca ptr, align 8
  %new_key = alloca ptr, align 8
  store ptr %connection_track_table, ptr %connection_track_table.addr, align 8
  store ptr %key, ptr %key.addr, align 8
  store ptr %conn_list, ptr %conn_list.addr, align 8
  %0 = load ptr, ptr %connection_track_table.addr, align 8
  %1 = load ptr, ptr %key.addr, align 8
  %call = call ptr @g_hash_table_lookup(ptr noundef %0, ptr noundef %1)
  store ptr %call, ptr %conn, align 8
  %2 = load ptr, ptr %conn, align 8
  %cmp = icmp eq ptr %2, null
  br i1 %cmp, label %if.then, label %if.end10

if.then:                                          ; preds = %entry
  %3 = load ptr, ptr %key.addr, align 8
  %call1 = call ptr @g_memdup(ptr noundef %3, i32 noundef 13) #14
  store ptr %call1, ptr %new_key, align 8
  %4 = load ptr, ptr %key.addr, align 8
  %call2 = call ptr @connection_new(ptr noundef %4)
  store ptr %call2, ptr %conn, align 8
  %5 = load ptr, ptr %connection_track_table.addr, align 8
  %call3 = call i32 @g_hash_table_size(ptr noundef %5)
  %cmp4 = icmp ugt i32 %call3, 16384
  br i1 %cmp4, label %if.then5, label %if.end

if.then5:                                         ; preds = %if.then
  call void @trace_colo_proxy_main(ptr noundef @.str.5)
  %6 = load ptr, ptr %connection_track_table.addr, align 8
  call void @connection_hashtable_reset(ptr noundef %6)
  br label %while.cond

while.cond:                                       ; preds = %while.body, %if.then5
  %7 = load ptr, ptr %conn_list.addr, align 8
  %tobool = icmp ne ptr %7, null
  br i1 %tobool, label %land.rhs, label %land.end

land.rhs:                                         ; preds = %while.cond
  %8 = load ptr, ptr %conn_list.addr, align 8
  %call6 = call i32 @g_queue_is_empty(ptr noundef %8)
  %tobool7 = icmp ne i32 %call6, 0
  %lnot = xor i1 %tobool7, true
  br label %land.end

land.end:                                         ; preds = %land.rhs, %while.cond
  %9 = phi i1 [ false, %while.cond ], [ %lnot, %land.rhs ]
  br i1 %9, label %while.body, label %while.end

while.body:                                       ; preds = %land.end
  %10 = load ptr, ptr %conn_list.addr, align 8
  %call8 = call ptr @g_queue_pop_head(ptr noundef %10)
  call void @connection_destroy(ptr noundef %call8)
  br label %while.cond, !llvm.loop !5

while.end:                                        ; preds = %land.end
  br label %if.end

if.end:                                           ; preds = %while.end, %if.then
  %11 = load ptr, ptr %connection_track_table.addr, align 8
  %12 = load ptr, ptr %new_key, align 8
  %13 = load ptr, ptr %conn, align 8
  %call9 = call i32 @g_hash_table_insert(ptr noundef %11, ptr noundef %12, ptr noundef %13)
  br label %if.end10

if.end10:                                         ; preds = %if.end, %entry
  %14 = load ptr, ptr %conn, align 8
  ret ptr %14
}