; Function Attrs: nounwind sspstrong uwtable
define dso_local ptr @connection_get(ptr noundef %connection_track_table, ptr noundef %key, ptr noundef %conn_list) local_unnamed_addr #2 {
entry:
  %_now.i.i = alloca %struct.timeval, align 8
  %call = tail call ptr @g_hash_table_lookup(ptr noundef %connection_track_table, ptr noundef %key) #15
  %cmp = icmp eq ptr %call, null
  br i1 %cmp, label %if.then, label %if.end10

if.then:                                          ; preds = %entry
  %call1 = tail call dereferenceable_or_null(13) ptr @g_memdup(ptr noundef %key, i32 noundef 13) #18
  %call.i = tail call noalias dereferenceable_or_null(80) ptr @g_slice_alloc0(i64 noundef 80) #17
  %ip_proto.i = getelementptr inbounds nuw i8, ptr %key, i64 12
  %0 = load i8, ptr %ip_proto.i, align 1
  %ip_proto1.i = getelementptr inbounds nuw i8, ptr %call.i, i64 49
  store i8 %0, ptr %ip_proto1.i, align 1
  %processing.i = getelementptr inbounds nuw i8, ptr %call.i, i64 48
  store i8 0, ptr %processing.i, align 8
  %tcp_state.i = getelementptr inbounds nuw i8, ptr %call.i, i64 68
  store i32 0, ptr %tcp_state.i, align 4
  tail call void @g_queue_init(ptr noundef %call.i) #15
  %secondary_list.i = getelementptr inbounds nuw i8, ptr %call.i, i64 24
  tail call void @g_queue_init(ptr noundef nonnull %secondary_list.i) #15
  %call3 = tail call i32 @g_hash_table_size(ptr noundef %connection_track_table) #15
  %cmp4 = icmp ugt i32 %call3, 16384
  br i1 %cmp4, label %if.then5, label %if.end

if.then5:                                         ; preds = %if.then
  call void @llvm.lifetime.start.p0(i64 16, ptr nonnull %_now.i.i)
  %1 = load i32, ptr @trace_events_enabled_count, align 4
  %tobool.i.i = icmp ne i32 %1, 0
  %2 = load i16, ptr @_TRACE_COLO_PROXY_MAIN_DSTATE, align 2
  %tobool4.i.i = icmp ne i16 %2, 0
  %or.cond.i.i = select i1 %tobool.i.i, i1 %tobool4.i.i, i1 false
  br i1 %or.cond.i.i, label %land.lhs.true5.i.i, label %trace_colo_proxy_main.exit

land.lhs.true5.i.i:                               ; preds = %if.then5
  %3 = load i32, ptr @qemu_loglevel, align 4
  %and.i.i.i = and i32 %3, 32768
  %cmp.i.not.i.i = icmp eq i32 %and.i.i.i, 0
  br i1 %cmp.i.not.i.i, label %trace_colo_proxy_main.exit, label %if.then.i.i

if.then.i.i:                                      ; preds = %land.lhs.true5.i.i
  %4 = load i8, ptr @message_with_timestamp, align 1
  %tobool7.i.i = trunc i8 %4 to i1
  br i1 %tobool7.i.i, label %if.then8.i.i, label %if.else.i.i

if.then8.i.i:                                     ; preds = %if.then.i.i
  %call9.i.i = call i32 @gettimeofday(ptr noundef nonnull %_now.i.i, ptr noundef null) #15
  %call10.i.i = tail call i32 @qemu_get_thread_id() #15
  %5 = load i64, ptr %_now.i.i, align 8
  %tv_usec.i.i = getelementptr inbounds nuw i8, ptr %_now.i.i, i64 8
  %6 = load i64, ptr %tv_usec.i.i, align 8
  tail call void (ptr, ...) @qemu_log(ptr noundef nonnull @.str.8, i32 noundef %call10.i.i, i64 noundef %5, i64 noundef %6, ptr noundef nonnull @.str.5) #15
  br label %trace_colo_proxy_main.exit

if.else.i.i:                                      ; preds = %if.then.i.i
  tail call void (ptr, ...) @qemu_log(ptr noundef nonnull @.str.9, ptr noundef nonnull @.str.5) #15
  br label %trace_colo_proxy_main.exit

trace_colo_proxy_main.exit:                       ; preds = %if.then5, %land.lhs.true5.i.i, %if.then8.i.i, %if.else.i.i
  call void @llvm.lifetime.end.p0(i64 16, ptr nonnull %_now.i.i)
  tail call void @g_hash_table_remove_all(ptr noundef %connection_track_table) #15
  %tobool.not = icmp eq ptr %conn_list, null
  br i1 %tobool.not, label %if.end, label %land.rhs.lr.ph.split

land.rhs.lr.ph.split:                             ; preds = %trace_colo_proxy_main.exit
  %call611 = tail call i32 @g_queue_is_empty(ptr noundef nonnull %conn_list) #15
  %tobool7.not12 = icmp eq i32 %call611, 0
  br i1 %tobool7.not12, label %while.body, label %if.end

while.body:                                       ; preds = %land.rhs.lr.ph.split, %while.body
  %call8 = tail call ptr @g_queue_pop_head(ptr noundef nonnull %conn_list) #15
  tail call void @g_queue_foreach(ptr noundef %call8, ptr noundef nonnull @packet_destroy, ptr noundef null) #15
  tail call void @g_queue_clear(ptr noundef %call8) #15
  %secondary_list.i10 = getelementptr inbounds nuw i8, ptr %call8, i64 24
  tail call void @g_queue_foreach(ptr noundef nonnull %secondary_list.i10, ptr noundef nonnull @packet_destroy, ptr noundef null) #15
  tail call void @g_queue_clear(ptr noundef nonnull %secondary_list.i10) #15
  tail call void @g_slice_free1(i64 noundef 80, ptr noundef %call8) #15
  %call6 = tail call i32 @g_queue_is_empty(ptr noundef nonnull %conn_list) #15
  %tobool7.not = icmp eq i32 %call6, 0
  br i1 %tobool7.not, label %while.body, label %if.end

if.end:                                           ; preds = %while.body, %trace_colo_proxy_main.exit, %land.rhs.lr.ph.split, %if.then
  %call9 = tail call i32 @g_hash_table_insert(ptr noundef %connection_track_table, ptr noundef %call1, ptr noundef %call.i) #15
  br label %if.end10

if.end10:                                         ; preds = %if.end, %entry
  %conn.0 = phi ptr [ %call.i, %if.end ], [ %call, %entry ]
  ret ptr %conn.0
}